
target/mos:     file format elf32-tradlittlemips


Disassembly of section .text:

80010000 <elf_from>:
80010000:	27bdfff0 	addiu	sp,sp,-16
80010004:	afbe000c 	sw	s8,12(sp)
80010008:	03a0f025 	move	s8,sp
8001000c:	afc40010 	sw	a0,16(s8)
80010010:	afc50014 	sw	a1,20(s8)
80010014:	8fc20010 	lw	v0,16(s8)
80010018:	00000000 	nop
8001001c:	afc20000 	sw	v0,0(s8)
80010020:	8fc20014 	lw	v0,20(s8)
80010024:	00000000 	nop
80010028:	2c420034 	sltiu	v0,v0,52
8001002c:	14400022 	bnez	v0,800100b8 <elf_from+0xb8>
80010030:	00000000 	nop
80010034:	8fc20000 	lw	v0,0(s8)
80010038:	00000000 	nop
8001003c:	90430000 	lbu	v1,0(v0)
80010040:	2402007f 	li	v0,127
80010044:	1462001c 	bne	v1,v0,800100b8 <elf_from+0xb8>
80010048:	00000000 	nop
8001004c:	8fc20000 	lw	v0,0(s8)
80010050:	00000000 	nop
80010054:	90430001 	lbu	v1,1(v0)
80010058:	24020045 	li	v0,69
8001005c:	14620016 	bne	v1,v0,800100b8 <elf_from+0xb8>
80010060:	00000000 	nop
80010064:	8fc20000 	lw	v0,0(s8)
80010068:	00000000 	nop
8001006c:	90430002 	lbu	v1,2(v0)
80010070:	2402004c 	li	v0,76
80010074:	14620010 	bne	v1,v0,800100b8 <elf_from+0xb8>
80010078:	00000000 	nop
8001007c:	8fc20000 	lw	v0,0(s8)
80010080:	00000000 	nop
80010084:	90430003 	lbu	v1,3(v0)
80010088:	24020046 	li	v0,70
8001008c:	1462000a 	bne	v1,v0,800100b8 <elf_from+0xb8>
80010090:	00000000 	nop
80010094:	8fc20000 	lw	v0,0(s8)
80010098:	00000000 	nop
8001009c:	94430010 	lhu	v1,16(v0)
800100a0:	24020002 	li	v0,2
800100a4:	14620004 	bne	v1,v0,800100b8 <elf_from+0xb8>
800100a8:	00000000 	nop
800100ac:	8fc20000 	lw	v0,0(s8)
800100b0:	10000002 	b	800100bc <elf_from+0xbc>
800100b4:	00000000 	nop
800100b8:	00001025 	move	v0,zero
800100bc:	03c0e825 	move	sp,s8
800100c0:	8fbe000c 	lw	s8,12(sp)
800100c4:	27bd0010 	addiu	sp,sp,16
800100c8:	03e00008 	jr	ra
800100cc:	00000000 	nop

800100d0 <elf_load_seg>:
800100d0:	27bdffa0 	addiu	sp,sp,-96
800100d4:	afbf005c 	sw	ra,92(sp)
800100d8:	afbe0058 	sw	s8,88(sp)
800100dc:	03a0f025 	move	s8,sp
800100e0:	afc40060 	sw	a0,96(s8)
800100e4:	afc50064 	sw	a1,100(s8)
800100e8:	afc60068 	sw	a2,104(s8)
800100ec:	afc7006c 	sw	a3,108(s8)
800100f0:	8fc20060 	lw	v0,96(s8)
800100f4:	00000000 	nop
800100f8:	8c420008 	lw	v0,8(v0)
800100fc:	00000000 	nop
80010100:	afc20020 	sw	v0,32(s8)
80010104:	8fc20060 	lw	v0,96(s8)
80010108:	00000000 	nop
8001010c:	8c420010 	lw	v0,16(v0)
80010110:	00000000 	nop
80010114:	afc20024 	sw	v0,36(s8)
80010118:	8fc20060 	lw	v0,96(s8)
8001011c:	00000000 	nop
80010120:	8c420014 	lw	v0,20(v0)
80010124:	00000000 	nop
80010128:	afc20028 	sw	v0,40(s8)
8001012c:	24020200 	li	v0,512
80010130:	afc20018 	sw	v0,24(s8)
80010134:	8fc20060 	lw	v0,96(s8)
80010138:	00000000 	nop
8001013c:	8c420018 	lw	v0,24(v0)
80010140:	00000000 	nop
80010144:	30420002 	andi	v0,v0,0x2
80010148:	10400005 	beqz	v0,80010160 <elf_load_seg+0x90>
8001014c:	00000000 	nop
80010150:	8fc20018 	lw	v0,24(s8)
80010154:	00000000 	nop
80010158:	34420400 	ori	v0,v0,0x400
8001015c:	afc20018 	sw	v0,24(s8)
80010160:	8fc20020 	lw	v0,32(s8)
80010164:	00000000 	nop
80010168:	30420fff 	andi	v0,v0,0xfff
8001016c:	afc2002c 	sw	v0,44(s8)
80010170:	8fc2002c 	lw	v0,44(s8)
80010174:	00000000 	nop
80010178:	10400023 	beqz	v0,80010208 <elf_load_seg+0x138>
8001017c:	00000000 	nop
80010180:	8fc20024 	lw	v0,36(s8)
80010184:	00000000 	nop
80010188:	afc20030 	sw	v0,48(s8)
8001018c:	24031000 	li	v1,4096
80010190:	8fc2002c 	lw	v0,44(s8)
80010194:	00000000 	nop
80010198:	00621023 	subu	v0,v1,v0
8001019c:	afc20034 	sw	v0,52(s8)
800101a0:	8fc30034 	lw	v1,52(s8)
800101a4:	8fc20030 	lw	v0,48(s8)
800101a8:	00000000 	nop
800101ac:	0062202b 	sltu	a0,v1,v0
800101b0:	10800002 	beqz	a0,800101bc <elf_load_seg+0xec>
800101b4:	00000000 	nop
800101b8:	00601025 	move	v0,v1
800101bc:	afa20014 	sw	v0,20(sp)
800101c0:	8fc20064 	lw	v0,100(s8)
800101c4:	00000000 	nop
800101c8:	afa20010 	sw	v0,16(sp)
800101cc:	8fc20068 	lw	v0,104(s8)
800101d0:	8fc70018 	lw	a3,24(s8)
800101d4:	8fc6002c 	lw	a2,44(s8)
800101d8:	8fc50020 	lw	a1,32(s8)
800101dc:	8fc4006c 	lw	a0,108(s8)
800101e0:	0040f809 	jalr	v0
800101e4:	00000000 	nop
800101e8:	afc20038 	sw	v0,56(s8)
800101ec:	8fc20038 	lw	v0,56(s8)
800101f0:	00000000 	nop
800101f4:	10400004 	beqz	v0,80010208 <elf_load_seg+0x138>
800101f8:	00000000 	nop
800101fc:	8fc20038 	lw	v0,56(s8)
80010200:	1000007a 	b	800103ec <elf_load_seg+0x31c>
80010204:	00000000 	nop
80010208:	8fc2002c 	lw	v0,44(s8)
8001020c:	00000000 	nop
80010210:	10400012 	beqz	v0,8001025c <elf_load_seg+0x18c>
80010214:	00000000 	nop
80010218:	8fc20024 	lw	v0,36(s8)
8001021c:	00000000 	nop
80010220:	afc2003c 	sw	v0,60(s8)
80010224:	24031000 	li	v1,4096
80010228:	8fc2002c 	lw	v0,44(s8)
8001022c:	00000000 	nop
80010230:	00621023 	subu	v0,v1,v0
80010234:	afc20040 	sw	v0,64(s8)
80010238:	8fc30040 	lw	v1,64(s8)
8001023c:	8fc2003c 	lw	v0,60(s8)
80010240:	00000000 	nop
80010244:	0062202b 	sltu	a0,v1,v0
80010248:	10800005 	beqz	a0,80010260 <elf_load_seg+0x190>
8001024c:	00000000 	nop
80010250:	00601025 	move	v0,v1
80010254:	10000002 	b	80010260 <elf_load_seg+0x190>
80010258:	00000000 	nop
8001025c:	00001025 	move	v0,zero
80010260:	afc2001c 	sw	v0,28(s8)
80010264:	1000002c 	b	80010318 <elf_load_seg+0x248>
80010268:	00000000 	nop
8001026c:	8fc30020 	lw	v1,32(s8)
80010270:	8fc2001c 	lw	v0,28(s8)
80010274:	00000000 	nop
80010278:	00624021 	addu	t0,v1,v0
8001027c:	8fc30064 	lw	v1,100(s8)
80010280:	8fc2001c 	lw	v0,28(s8)
80010284:	00000000 	nop
80010288:	00622021 	addu	a0,v1,v0
8001028c:	8fc30024 	lw	v1,36(s8)
80010290:	8fc2001c 	lw	v0,28(s8)
80010294:	00000000 	nop
80010298:	00621023 	subu	v0,v1,v0
8001029c:	afc2004c 	sw	v0,76(s8)
800102a0:	24021000 	li	v0,4096
800102a4:	afc20050 	sw	v0,80(s8)
800102a8:	8fc30050 	lw	v1,80(s8)
800102ac:	8fc2004c 	lw	v0,76(s8)
800102b0:	00000000 	nop
800102b4:	0062282b 	sltu	a1,v1,v0
800102b8:	10a00002 	beqz	a1,800102c4 <elf_load_seg+0x1f4>
800102bc:	00000000 	nop
800102c0:	00601025 	move	v0,v1
800102c4:	afa20014 	sw	v0,20(sp)
800102c8:	afa40010 	sw	a0,16(sp)
800102cc:	8fc20068 	lw	v0,104(s8)
800102d0:	8fc70018 	lw	a3,24(s8)
800102d4:	00003025 	move	a2,zero
800102d8:	01002825 	move	a1,t0
800102dc:	8fc4006c 	lw	a0,108(s8)
800102e0:	0040f809 	jalr	v0
800102e4:	00000000 	nop
800102e8:	afc20038 	sw	v0,56(s8)
800102ec:	8fc20038 	lw	v0,56(s8)
800102f0:	00000000 	nop
800102f4:	10400004 	beqz	v0,80010308 <elf_load_seg+0x238>
800102f8:	00000000 	nop
800102fc:	8fc20038 	lw	v0,56(s8)
80010300:	1000003a 	b	800103ec <elf_load_seg+0x31c>
80010304:	00000000 	nop
80010308:	8fc2001c 	lw	v0,28(s8)
8001030c:	00000000 	nop
80010310:	24421000 	addiu	v0,v0,4096
80010314:	afc2001c 	sw	v0,28(s8)
80010318:	8fc3001c 	lw	v1,28(s8)
8001031c:	8fc20024 	lw	v0,36(s8)
80010320:	00000000 	nop
80010324:	0062102b 	sltu	v0,v1,v0
80010328:	1440ffd0 	bnez	v0,8001026c <elf_load_seg+0x19c>
8001032c:	00000000 	nop
80010330:	10000027 	b	800103d0 <elf_load_seg+0x300>
80010334:	00000000 	nop
80010338:	8fc30020 	lw	v1,32(s8)
8001033c:	8fc2001c 	lw	v0,28(s8)
80010340:	00000000 	nop
80010344:	00622821 	addu	a1,v1,v0
80010348:	8fc30024 	lw	v1,36(s8)
8001034c:	8fc2001c 	lw	v0,28(s8)
80010350:	00000000 	nop
80010354:	00621023 	subu	v0,v1,v0
80010358:	afc20044 	sw	v0,68(s8)
8001035c:	24021000 	li	v0,4096
80010360:	afc20048 	sw	v0,72(s8)
80010364:	8fc30048 	lw	v1,72(s8)
80010368:	8fc20044 	lw	v0,68(s8)
8001036c:	00000000 	nop
80010370:	0062202b 	sltu	a0,v1,v0
80010374:	10800002 	beqz	a0,80010380 <elf_load_seg+0x2b0>
80010378:	00000000 	nop
8001037c:	00601025 	move	v0,v1
80010380:	afa20014 	sw	v0,20(sp)
80010384:	afa00010 	sw	zero,16(sp)
80010388:	8fc20068 	lw	v0,104(s8)
8001038c:	8fc70018 	lw	a3,24(s8)
80010390:	00003025 	move	a2,zero
80010394:	8fc4006c 	lw	a0,108(s8)
80010398:	0040f809 	jalr	v0
8001039c:	00000000 	nop
800103a0:	afc20038 	sw	v0,56(s8)
800103a4:	8fc20038 	lw	v0,56(s8)
800103a8:	00000000 	nop
800103ac:	10400004 	beqz	v0,800103c0 <elf_load_seg+0x2f0>
800103b0:	00000000 	nop
800103b4:	8fc20038 	lw	v0,56(s8)
800103b8:	1000000c 	b	800103ec <elf_load_seg+0x31c>
800103bc:	00000000 	nop
800103c0:	8fc2001c 	lw	v0,28(s8)
800103c4:	00000000 	nop
800103c8:	24421000 	addiu	v0,v0,4096
800103cc:	afc2001c 	sw	v0,28(s8)
800103d0:	8fc3001c 	lw	v1,28(s8)
800103d4:	8fc20028 	lw	v0,40(s8)
800103d8:	00000000 	nop
800103dc:	0062102b 	sltu	v0,v1,v0
800103e0:	1440ffd5 	bnez	v0,80010338 <elf_load_seg+0x268>
800103e4:	00000000 	nop
800103e8:	00001025 	move	v0,zero
800103ec:	03c0e825 	move	sp,s8
800103f0:	8fbf005c 	lw	ra,92(sp)
800103f4:	8fbe0058 	lw	s8,88(sp)
800103f8:	27bd0060 	addiu	sp,sp,96
800103fc:	03e00008 	jr	ra
80010400:	00000000 	nop
	...

80010410 <vprintfmt>:
80010410:	27bdffa8 	addiu	sp,sp,-88
80010414:	afbf0054 	sw	ra,84(sp)
80010418:	afbe0050 	sw	s8,80(sp)
8001041c:	03a0f025 	move	s8,sp
80010420:	afc40058 	sw	a0,88(s8)
80010424:	afc5005c 	sw	a1,92(s8)
80010428:	afc60060 	sw	a2,96(s8)
8001042c:	afc70064 	sw	a3,100(s8)
80010430:	8fc20060 	lw	v0,96(s8)
80010434:	00000000 	nop
80010438:	afc20040 	sw	v0,64(s8)
8001043c:	10000005 	b	80010454 <vprintfmt+0x44>
80010440:	00000000 	nop
80010444:	8fc20040 	lw	v0,64(s8)
80010448:	00000000 	nop
8001044c:	24420001 	addiu	v0,v0,1
80010450:	afc20040 	sw	v0,64(s8)
80010454:	8fc20040 	lw	v0,64(s8)
80010458:	00000000 	nop
8001045c:	80430000 	lb	v1,0(v0)
80010460:	24020025 	li	v0,37
80010464:	10620007 	beq	v1,v0,80010484 <vprintfmt+0x74>
80010468:	00000000 	nop
8001046c:	8fc20040 	lw	v0,64(s8)
80010470:	00000000 	nop
80010474:	80420000 	lb	v0,0(v0)
80010478:	00000000 	nop
8001047c:	1440fff1 	bnez	v0,80010444 <vprintfmt+0x34>
80010480:	00000000 	nop
80010484:	8fc30040 	lw	v1,64(s8)
80010488:	8fc20060 	lw	v0,96(s8)
8001048c:	00000000 	nop
80010490:	00621023 	subu	v0,v1,v0
80010494:	00401825 	move	v1,v0
80010498:	8fc20058 	lw	v0,88(s8)
8001049c:	00603025 	move	a2,v1
800104a0:	8fc50060 	lw	a1,96(s8)
800104a4:	8fc4005c 	lw	a0,92(s8)
800104a8:	0040f809 	jalr	v0
800104ac:	00000000 	nop
800104b0:	8fc20040 	lw	v0,64(s8)
800104b4:	00000000 	nop
800104b8:	afc20060 	sw	v0,96(s8)
800104bc:	8fc20060 	lw	v0,96(s8)
800104c0:	00000000 	nop
800104c4:	80420000 	lb	v0,0(v0)
800104c8:	00000000 	nop
800104cc:	104001a9 	beqz	v0,80010b74 <vprintfmt+0x764>
800104d0:	00000000 	nop
800104d4:	8fc20060 	lw	v0,96(s8)
800104d8:	00000000 	nop
800104dc:	24420001 	addiu	v0,v0,1
800104e0:	afc20060 	sw	v0,96(s8)
800104e4:	afc00038 	sw	zero,56(s8)
800104e8:	24020020 	li	v0,32
800104ec:	a3c2003c 	sb	v0,60(s8)
800104f0:	8fc20060 	lw	v0,96(s8)
800104f4:	00000000 	nop
800104f8:	80430000 	lb	v1,0(v0)
800104fc:	2402002d 	li	v0,45
80010500:	14620009 	bne	v1,v0,80010528 <vprintfmt+0x118>
80010504:	00000000 	nop
80010508:	24020001 	li	v0,1
8001050c:	afc20038 	sw	v0,56(s8)
80010510:	8fc20060 	lw	v0,96(s8)
80010514:	00000000 	nop
80010518:	24420001 	addiu	v0,v0,1
8001051c:	afc20060 	sw	v0,96(s8)
80010520:	1000000d 	b	80010558 <vprintfmt+0x148>
80010524:	00000000 	nop
80010528:	8fc20060 	lw	v0,96(s8)
8001052c:	00000000 	nop
80010530:	80430000 	lb	v1,0(v0)
80010534:	24020030 	li	v0,48
80010538:	14620007 	bne	v1,v0,80010558 <vprintfmt+0x148>
8001053c:	00000000 	nop
80010540:	24020030 	li	v0,48
80010544:	a3c2003c 	sb	v0,60(s8)
80010548:	8fc20060 	lw	v0,96(s8)
8001054c:	00000000 	nop
80010550:	24420001 	addiu	v0,v0,1
80010554:	afc20060 	sw	v0,96(s8)
80010558:	afc0002c 	sw	zero,44(s8)
8001055c:	10000015 	b	800105b4 <vprintfmt+0x1a4>
80010560:	00000000 	nop
80010564:	8fc3002c 	lw	v1,44(s8)
80010568:	00000000 	nop
8001056c:	00601025 	move	v0,v1
80010570:	00021080 	sll	v0,v0,0x2
80010574:	00431021 	addu	v0,v0,v1
80010578:	00021040 	sll	v0,v0,0x1
8001057c:	afc2002c 	sw	v0,44(s8)
80010580:	8fc20060 	lw	v0,96(s8)
80010584:	00000000 	nop
80010588:	80420000 	lb	v0,0(v0)
8001058c:	00000000 	nop
80010590:	2442ffd0 	addiu	v0,v0,-48
80010594:	8fc3002c 	lw	v1,44(s8)
80010598:	00000000 	nop
8001059c:	00621021 	addu	v0,v1,v0
800105a0:	afc2002c 	sw	v0,44(s8)
800105a4:	8fc20060 	lw	v0,96(s8)
800105a8:	00000000 	nop
800105ac:	24420001 	addiu	v0,v0,1
800105b0:	afc20060 	sw	v0,96(s8)
800105b4:	8fc20060 	lw	v0,96(s8)
800105b8:	00000000 	nop
800105bc:	80420000 	lb	v0,0(v0)
800105c0:	00000000 	nop
800105c4:	28420030 	slti	v0,v0,48
800105c8:	1440000e 	bnez	v0,80010604 <vprintfmt+0x1f4>
800105cc:	00000000 	nop
800105d0:	8fc20060 	lw	v0,96(s8)
800105d4:	00000000 	nop
800105d8:	80420000 	lb	v0,0(v0)
800105dc:	00000000 	nop
800105e0:	2842003a 	slti	v0,v0,58
800105e4:	10400007 	beqz	v0,80010604 <vprintfmt+0x1f4>
800105e8:	00000000 	nop
800105ec:	8fc20060 	lw	v0,96(s8)
800105f0:	00000000 	nop
800105f4:	80420000 	lb	v0,0(v0)
800105f8:	00000000 	nop
800105fc:	1440ffd9 	bnez	v0,80010564 <vprintfmt+0x154>
80010600:	00000000 	nop
80010604:	afc00030 	sw	zero,48(s8)
80010608:	8fc20060 	lw	v0,96(s8)
8001060c:	00000000 	nop
80010610:	80430000 	lb	v1,0(v0)
80010614:	2402006c 	li	v0,108
80010618:	14620007 	bne	v1,v0,80010638 <vprintfmt+0x228>
8001061c:	00000000 	nop
80010620:	24020001 	li	v0,1
80010624:	afc20030 	sw	v0,48(s8)
80010628:	8fc20060 	lw	v0,96(s8)
8001062c:	00000000 	nop
80010630:	24420001 	addiu	v0,v0,1
80010634:	afc20060 	sw	v0,96(s8)
80010638:	afc00034 	sw	zero,52(s8)
8001063c:	8fc20060 	lw	v0,96(s8)
80010640:	00000000 	nop
80010644:	80420000 	lb	v0,0(v0)
80010648:	00000000 	nop
8001064c:	10400137 	beqz	v0,80010b2c <vprintfmt+0x71c>
80010650:	00000000 	nop
80010654:	0440013b 	bltz	v0,80010b44 <vprintfmt+0x734>
80010658:	00000000 	nop
8001065c:	28430079 	slti	v1,v0,121
80010660:	10600138 	beqz	v1,80010b44 <vprintfmt+0x734>
80010664:	00000000 	nop
80010668:	28430044 	slti	v1,v0,68
8001066c:	14600135 	bnez	v1,80010b44 <vprintfmt+0x734>
80010670:	00000000 	nop
80010674:	2442ffbc 	addiu	v0,v0,-68
80010678:	2c430035 	sltiu	v1,v0,53
8001067c:	10600131 	beqz	v1,80010b44 <vprintfmt+0x734>
80010680:	00000000 	nop
80010684:	00021880 	sll	v1,v0,0x2
80010688:	3c028001 	lui	v0,0x8001
8001068c:	24421d50 	addiu	v0,v0,7504
80010690:	00621021 	addu	v0,v1,v0
80010694:	8c420000 	lw	v0,0(v0)
80010698:	00000000 	nop
8001069c:	00400008 	jr	v0
800106a0:	00000000 	nop
800106a4:	8fc20030 	lw	v0,48(s8)
800106a8:	00000000 	nop
800106ac:	1040000a 	beqz	v0,800106d8 <vprintfmt+0x2c8>
800106b0:	00000000 	nop
800106b4:	8fc20064 	lw	v0,100(s8)
800106b8:	00000000 	nop
800106bc:	24430004 	addiu	v1,v0,4
800106c0:	afc30064 	sw	v1,100(s8)
800106c4:	8c420000 	lw	v0,0(v0)
800106c8:	00000000 	nop
800106cc:	afc20028 	sw	v0,40(s8)
800106d0:	10000008 	b	800106f4 <vprintfmt+0x2e4>
800106d4:	00000000 	nop
800106d8:	8fc20064 	lw	v0,100(s8)
800106dc:	00000000 	nop
800106e0:	24430004 	addiu	v1,v0,4
800106e4:	afc30064 	sw	v1,100(s8)
800106e8:	8c420000 	lw	v0,0(v0)
800106ec:	00000000 	nop
800106f0:	afc20028 	sw	v0,40(s8)
800106f4:	8fc30028 	lw	v1,40(s8)
800106f8:	afa00020 	sw	zero,32(sp)
800106fc:	83c2003c 	lb	v0,60(s8)
80010700:	00000000 	nop
80010704:	afa2001c 	sw	v0,28(sp)
80010708:	8fc20038 	lw	v0,56(s8)
8001070c:	00000000 	nop
80010710:	afa20018 	sw	v0,24(sp)
80010714:	8fc2002c 	lw	v0,44(s8)
80010718:	00000000 	nop
8001071c:	afa20014 	sw	v0,20(sp)
80010720:	afa00010 	sw	zero,16(sp)
80010724:	24070002 	li	a3,2
80010728:	00603025 	move	a2,v1
8001072c:	8fc5005c 	lw	a1,92(s8)
80010730:	8fc40058 	lw	a0,88(s8)
80010734:	0c0043a7 	jal	80010e9c <print_num>
80010738:	00000000 	nop
8001073c:	10000107 	b	80010b5c <vprintfmt+0x74c>
80010740:	00000000 	nop
80010744:	8fc20030 	lw	v0,48(s8)
80010748:	00000000 	nop
8001074c:	1040000a 	beqz	v0,80010778 <vprintfmt+0x368>
80010750:	00000000 	nop
80010754:	8fc20064 	lw	v0,100(s8)
80010758:	00000000 	nop
8001075c:	24430004 	addiu	v1,v0,4
80010760:	afc30064 	sw	v1,100(s8)
80010764:	8c420000 	lw	v0,0(v0)
80010768:	00000000 	nop
8001076c:	afc20028 	sw	v0,40(s8)
80010770:	10000008 	b	80010794 <vprintfmt+0x384>
80010774:	00000000 	nop
80010778:	8fc20064 	lw	v0,100(s8)
8001077c:	00000000 	nop
80010780:	24430004 	addiu	v1,v0,4
80010784:	afc30064 	sw	v1,100(s8)
80010788:	8c420000 	lw	v0,0(v0)
8001078c:	00000000 	nop
80010790:	afc20028 	sw	v0,40(s8)
80010794:	8fc20028 	lw	v0,40(s8)
80010798:	00000000 	nop
8001079c:	04410007 	bgez	v0,800107bc <vprintfmt+0x3ac>
800107a0:	00000000 	nop
800107a4:	24020001 	li	v0,1
800107a8:	afc20034 	sw	v0,52(s8)
800107ac:	8fc20028 	lw	v0,40(s8)
800107b0:	00000000 	nop
800107b4:	00021023 	negu	v0,v0
800107b8:	afc20028 	sw	v0,40(s8)
800107bc:	8fc30028 	lw	v1,40(s8)
800107c0:	afa00020 	sw	zero,32(sp)
800107c4:	83c2003c 	lb	v0,60(s8)
800107c8:	00000000 	nop
800107cc:	afa2001c 	sw	v0,28(sp)
800107d0:	8fc20038 	lw	v0,56(s8)
800107d4:	00000000 	nop
800107d8:	afa20018 	sw	v0,24(sp)
800107dc:	8fc2002c 	lw	v0,44(s8)
800107e0:	00000000 	nop
800107e4:	afa20014 	sw	v0,20(sp)
800107e8:	8fc20034 	lw	v0,52(s8)
800107ec:	00000000 	nop
800107f0:	afa20010 	sw	v0,16(sp)
800107f4:	2407000a 	li	a3,10
800107f8:	00603025 	move	a2,v1
800107fc:	8fc5005c 	lw	a1,92(s8)
80010800:	8fc40058 	lw	a0,88(s8)
80010804:	0c0043a7 	jal	80010e9c <print_num>
80010808:	00000000 	nop
8001080c:	100000d3 	b	80010b5c <vprintfmt+0x74c>
80010810:	00000000 	nop
80010814:	8fc20030 	lw	v0,48(s8)
80010818:	00000000 	nop
8001081c:	1040000a 	beqz	v0,80010848 <vprintfmt+0x438>
80010820:	00000000 	nop
80010824:	8fc20064 	lw	v0,100(s8)
80010828:	00000000 	nop
8001082c:	24430004 	addiu	v1,v0,4
80010830:	afc30064 	sw	v1,100(s8)
80010834:	8c420000 	lw	v0,0(v0)
80010838:	00000000 	nop
8001083c:	afc20028 	sw	v0,40(s8)
80010840:	10000008 	b	80010864 <vprintfmt+0x454>
80010844:	00000000 	nop
80010848:	8fc20064 	lw	v0,100(s8)
8001084c:	00000000 	nop
80010850:	24430004 	addiu	v1,v0,4
80010854:	afc30064 	sw	v1,100(s8)
80010858:	8c420000 	lw	v0,0(v0)
8001085c:	00000000 	nop
80010860:	afc20028 	sw	v0,40(s8)
80010864:	8fc30028 	lw	v1,40(s8)
80010868:	afa00020 	sw	zero,32(sp)
8001086c:	83c2003c 	lb	v0,60(s8)
80010870:	00000000 	nop
80010874:	afa2001c 	sw	v0,28(sp)
80010878:	8fc20038 	lw	v0,56(s8)
8001087c:	00000000 	nop
80010880:	afa20018 	sw	v0,24(sp)
80010884:	8fc2002c 	lw	v0,44(s8)
80010888:	00000000 	nop
8001088c:	afa20014 	sw	v0,20(sp)
80010890:	afa00010 	sw	zero,16(sp)
80010894:	24070008 	li	a3,8
80010898:	00603025 	move	a2,v1
8001089c:	8fc5005c 	lw	a1,92(s8)
800108a0:	8fc40058 	lw	a0,88(s8)
800108a4:	0c0043a7 	jal	80010e9c <print_num>
800108a8:	00000000 	nop
800108ac:	100000ab 	b	80010b5c <vprintfmt+0x74c>
800108b0:	00000000 	nop
800108b4:	8fc20030 	lw	v0,48(s8)
800108b8:	00000000 	nop
800108bc:	1040000a 	beqz	v0,800108e8 <vprintfmt+0x4d8>
800108c0:	00000000 	nop
800108c4:	8fc20064 	lw	v0,100(s8)
800108c8:	00000000 	nop
800108cc:	24430004 	addiu	v1,v0,4
800108d0:	afc30064 	sw	v1,100(s8)
800108d4:	8c420000 	lw	v0,0(v0)
800108d8:	00000000 	nop
800108dc:	afc20028 	sw	v0,40(s8)
800108e0:	10000008 	b	80010904 <vprintfmt+0x4f4>
800108e4:	00000000 	nop
800108e8:	8fc20064 	lw	v0,100(s8)
800108ec:	00000000 	nop
800108f0:	24430004 	addiu	v1,v0,4
800108f4:	afc30064 	sw	v1,100(s8)
800108f8:	8c420000 	lw	v0,0(v0)
800108fc:	00000000 	nop
80010900:	afc20028 	sw	v0,40(s8)
80010904:	8fc30028 	lw	v1,40(s8)
80010908:	afa00020 	sw	zero,32(sp)
8001090c:	83c2003c 	lb	v0,60(s8)
80010910:	00000000 	nop
80010914:	afa2001c 	sw	v0,28(sp)
80010918:	8fc20038 	lw	v0,56(s8)
8001091c:	00000000 	nop
80010920:	afa20018 	sw	v0,24(sp)
80010924:	8fc2002c 	lw	v0,44(s8)
80010928:	00000000 	nop
8001092c:	afa20014 	sw	v0,20(sp)
80010930:	afa00010 	sw	zero,16(sp)
80010934:	2407000a 	li	a3,10
80010938:	00603025 	move	a2,v1
8001093c:	8fc5005c 	lw	a1,92(s8)
80010940:	8fc40058 	lw	a0,88(s8)
80010944:	0c0043a7 	jal	80010e9c <print_num>
80010948:	00000000 	nop
8001094c:	10000083 	b	80010b5c <vprintfmt+0x74c>
80010950:	00000000 	nop
80010954:	8fc20030 	lw	v0,48(s8)
80010958:	00000000 	nop
8001095c:	1040000a 	beqz	v0,80010988 <vprintfmt+0x578>
80010960:	00000000 	nop
80010964:	8fc20064 	lw	v0,100(s8)
80010968:	00000000 	nop
8001096c:	24430004 	addiu	v1,v0,4
80010970:	afc30064 	sw	v1,100(s8)
80010974:	8c420000 	lw	v0,0(v0)
80010978:	00000000 	nop
8001097c:	afc20028 	sw	v0,40(s8)
80010980:	10000008 	b	800109a4 <vprintfmt+0x594>
80010984:	00000000 	nop
80010988:	8fc20064 	lw	v0,100(s8)
8001098c:	00000000 	nop
80010990:	24430004 	addiu	v1,v0,4
80010994:	afc30064 	sw	v1,100(s8)
80010998:	8c420000 	lw	v0,0(v0)
8001099c:	00000000 	nop
800109a0:	afc20028 	sw	v0,40(s8)
800109a4:	8fc30028 	lw	v1,40(s8)
800109a8:	afa00020 	sw	zero,32(sp)
800109ac:	83c2003c 	lb	v0,60(s8)
800109b0:	00000000 	nop
800109b4:	afa2001c 	sw	v0,28(sp)
800109b8:	8fc20038 	lw	v0,56(s8)
800109bc:	00000000 	nop
800109c0:	afa20018 	sw	v0,24(sp)
800109c4:	8fc2002c 	lw	v0,44(s8)
800109c8:	00000000 	nop
800109cc:	afa20014 	sw	v0,20(sp)
800109d0:	afa00010 	sw	zero,16(sp)
800109d4:	24070010 	li	a3,16
800109d8:	00603025 	move	a2,v1
800109dc:	8fc5005c 	lw	a1,92(s8)
800109e0:	8fc40058 	lw	a0,88(s8)
800109e4:	0c0043a7 	jal	80010e9c <print_num>
800109e8:	00000000 	nop
800109ec:	1000005b 	b	80010b5c <vprintfmt+0x74c>
800109f0:	00000000 	nop
800109f4:	8fc20030 	lw	v0,48(s8)
800109f8:	00000000 	nop
800109fc:	1040000a 	beqz	v0,80010a28 <vprintfmt+0x618>
80010a00:	00000000 	nop
80010a04:	8fc20064 	lw	v0,100(s8)
80010a08:	00000000 	nop
80010a0c:	24430004 	addiu	v1,v0,4
80010a10:	afc30064 	sw	v1,100(s8)
80010a14:	8c420000 	lw	v0,0(v0)
80010a18:	00000000 	nop
80010a1c:	afc20028 	sw	v0,40(s8)
80010a20:	10000008 	b	80010a44 <vprintfmt+0x634>
80010a24:	00000000 	nop
80010a28:	8fc20064 	lw	v0,100(s8)
80010a2c:	00000000 	nop
80010a30:	24430004 	addiu	v1,v0,4
80010a34:	afc30064 	sw	v1,100(s8)
80010a38:	8c420000 	lw	v0,0(v0)
80010a3c:	00000000 	nop
80010a40:	afc20028 	sw	v0,40(s8)
80010a44:	8fc30028 	lw	v1,40(s8)
80010a48:	24020001 	li	v0,1
80010a4c:	afa20020 	sw	v0,32(sp)
80010a50:	83c2003c 	lb	v0,60(s8)
80010a54:	00000000 	nop
80010a58:	afa2001c 	sw	v0,28(sp)
80010a5c:	8fc20038 	lw	v0,56(s8)
80010a60:	00000000 	nop
80010a64:	afa20018 	sw	v0,24(sp)
80010a68:	8fc2002c 	lw	v0,44(s8)
80010a6c:	00000000 	nop
80010a70:	afa20014 	sw	v0,20(sp)
80010a74:	afa00010 	sw	zero,16(sp)
80010a78:	24070010 	li	a3,16
80010a7c:	00603025 	move	a2,v1
80010a80:	8fc5005c 	lw	a1,92(s8)
80010a84:	8fc40058 	lw	a0,88(s8)
80010a88:	0c0043a7 	jal	80010e9c <print_num>
80010a8c:	00000000 	nop
80010a90:	10000032 	b	80010b5c <vprintfmt+0x74c>
80010a94:	00000000 	nop
80010a98:	8fc20064 	lw	v0,100(s8)
80010a9c:	00000000 	nop
80010aa0:	24430004 	addiu	v1,v0,4
80010aa4:	afc30064 	sw	v1,100(s8)
80010aa8:	8c420000 	lw	v0,0(v0)
80010aac:	00000000 	nop
80010ab0:	a3c20048 	sb	v0,72(s8)
80010ab4:	83c30048 	lb	v1,72(s8)
80010ab8:	8fc20038 	lw	v0,56(s8)
80010abc:	00000000 	nop
80010ac0:	afa20010 	sw	v0,16(sp)
80010ac4:	8fc7002c 	lw	a3,44(s8)
80010ac8:	00603025 	move	a2,v1
80010acc:	8fc5005c 	lw	a1,92(s8)
80010ad0:	8fc40058 	lw	a0,88(s8)
80010ad4:	0c0042e5 	jal	80010b94 <print_char>
80010ad8:	00000000 	nop
80010adc:	1000001f 	b	80010b5c <vprintfmt+0x74c>
80010ae0:	00000000 	nop
80010ae4:	8fc20064 	lw	v0,100(s8)
80010ae8:	00000000 	nop
80010aec:	24430004 	addiu	v1,v0,4
80010af0:	afc30064 	sw	v1,100(s8)
80010af4:	8c420000 	lw	v0,0(v0)
80010af8:	00000000 	nop
80010afc:	afc20044 	sw	v0,68(s8)
80010b00:	8fc20038 	lw	v0,56(s8)
80010b04:	00000000 	nop
80010b08:	afa20010 	sw	v0,16(sp)
80010b0c:	8fc7002c 	lw	a3,44(s8)
80010b10:	8fc60044 	lw	a2,68(s8)
80010b14:	8fc5005c 	lw	a1,92(s8)
80010b18:	8fc40058 	lw	a0,88(s8)
80010b1c:	0c00433c 	jal	80010cf0 <print_str>
80010b20:	00000000 	nop
80010b24:	1000000d 	b	80010b5c <vprintfmt+0x74c>
80010b28:	00000000 	nop
80010b2c:	8fc20060 	lw	v0,96(s8)
80010b30:	00000000 	nop
80010b34:	2442ffff 	addiu	v0,v0,-1
80010b38:	afc20060 	sw	v0,96(s8)
80010b3c:	10000007 	b	80010b5c <vprintfmt+0x74c>
80010b40:	00000000 	nop
80010b44:	8fc20058 	lw	v0,88(s8)
80010b48:	24060001 	li	a2,1
80010b4c:	8fc50060 	lw	a1,96(s8)
80010b50:	8fc4005c 	lw	a0,92(s8)
80010b54:	0040f809 	jalr	v0
80010b58:	00000000 	nop
80010b5c:	8fc20060 	lw	v0,96(s8)
80010b60:	00000000 	nop
80010b64:	24420001 	addiu	v0,v0,1
80010b68:	afc20060 	sw	v0,96(s8)
80010b6c:	1000fe30 	b	80010430 <vprintfmt+0x20>
80010b70:	00000000 	nop
	...
80010b7c:	03c0e825 	move	sp,s8
80010b80:	8fbf0054 	lw	ra,84(sp)
80010b84:	8fbe0050 	lw	s8,80(sp)
80010b88:	27bd0058 	addiu	sp,sp,88
80010b8c:	03e00008 	jr	ra
80010b90:	00000000 	nop

80010b94 <print_char>:
80010b94:	27bdffe0 	addiu	sp,sp,-32
80010b98:	afbf001c 	sw	ra,28(sp)
80010b9c:	afbe0018 	sw	s8,24(sp)
80010ba0:	03a0f025 	move	s8,sp
80010ba4:	afc40020 	sw	a0,32(s8)
80010ba8:	afc50024 	sw	a1,36(s8)
80010bac:	00c01025 	move	v0,a2
80010bb0:	afc7002c 	sw	a3,44(s8)
80010bb4:	a3c20028 	sb	v0,40(s8)
80010bb8:	8fc2002c 	lw	v0,44(s8)
80010bbc:	00000000 	nop
80010bc0:	1c400003 	bgtz	v0,80010bd0 <print_char+0x3c>
80010bc4:	00000000 	nop
80010bc8:	24020001 	li	v0,1
80010bcc:	afc2002c 	sw	v0,44(s8)
80010bd0:	24020020 	li	v0,32
80010bd4:	a3c20014 	sb	v0,20(s8)
80010bd8:	8fc20030 	lw	v0,48(s8)
80010bdc:	00000000 	nop
80010be0:	1040001f 	beqz	v0,80010c60 <print_char+0xcc>
80010be4:	00000000 	nop
80010be8:	27c30028 	addiu	v1,s8,40
80010bec:	8fc20020 	lw	v0,32(s8)
80010bf0:	24060001 	li	a2,1
80010bf4:	00602825 	move	a1,v1
80010bf8:	8fc40024 	lw	a0,36(s8)
80010bfc:	0040f809 	jalr	v0
80010c00:	00000000 	nop
80010c04:	24020001 	li	v0,1
80010c08:	afc20010 	sw	v0,16(s8)
80010c0c:	1000000c 	b	80010c40 <print_char+0xac>
80010c10:	00000000 	nop
80010c14:	27c30014 	addiu	v1,s8,20
80010c18:	8fc20020 	lw	v0,32(s8)
80010c1c:	24060001 	li	a2,1
80010c20:	00602825 	move	a1,v1
80010c24:	8fc40024 	lw	a0,36(s8)
80010c28:	0040f809 	jalr	v0
80010c2c:	00000000 	nop
80010c30:	8fc20010 	lw	v0,16(s8)
80010c34:	00000000 	nop
80010c38:	24420001 	addiu	v0,v0,1
80010c3c:	afc20010 	sw	v0,16(s8)
80010c40:	8fc30010 	lw	v1,16(s8)
80010c44:	8fc2002c 	lw	v0,44(s8)
80010c48:	00000000 	nop
80010c4c:	0062102a 	slt	v0,v1,v0
80010c50:	1440fff0 	bnez	v0,80010c14 <print_char+0x80>
80010c54:	00000000 	nop
80010c58:	1000001e 	b	80010cd4 <print_char+0x140>
80010c5c:	00000000 	nop
80010c60:	afc00010 	sw	zero,16(s8)
80010c64:	1000000c 	b	80010c98 <print_char+0x104>
80010c68:	00000000 	nop
80010c6c:	27c30014 	addiu	v1,s8,20
80010c70:	8fc20020 	lw	v0,32(s8)
80010c74:	24060001 	li	a2,1
80010c78:	00602825 	move	a1,v1
80010c7c:	8fc40024 	lw	a0,36(s8)
80010c80:	0040f809 	jalr	v0
80010c84:	00000000 	nop
80010c88:	8fc20010 	lw	v0,16(s8)
80010c8c:	00000000 	nop
80010c90:	24420001 	addiu	v0,v0,1
80010c94:	afc20010 	sw	v0,16(s8)
80010c98:	8fc2002c 	lw	v0,44(s8)
80010c9c:	00000000 	nop
80010ca0:	2442ffff 	addiu	v0,v0,-1
80010ca4:	8fc30010 	lw	v1,16(s8)
80010ca8:	00000000 	nop
80010cac:	0062102a 	slt	v0,v1,v0
80010cb0:	1440ffee 	bnez	v0,80010c6c <print_char+0xd8>
80010cb4:	00000000 	nop
80010cb8:	27c30028 	addiu	v1,s8,40
80010cbc:	8fc20020 	lw	v0,32(s8)
80010cc0:	24060001 	li	a2,1
80010cc4:	00602825 	move	a1,v1
80010cc8:	8fc40024 	lw	a0,36(s8)
80010ccc:	0040f809 	jalr	v0
80010cd0:	00000000 	nop
80010cd4:	00000000 	nop
80010cd8:	03c0e825 	move	sp,s8
80010cdc:	8fbf001c 	lw	ra,28(sp)
80010ce0:	8fbe0018 	lw	s8,24(sp)
80010ce4:	27bd0020 	addiu	sp,sp,32
80010ce8:	03e00008 	jr	ra
80010cec:	00000000 	nop

80010cf0 <print_str>:
80010cf0:	27bdffd8 	addiu	sp,sp,-40
80010cf4:	afbf0024 	sw	ra,36(sp)
80010cf8:	afbe0020 	sw	s8,32(sp)
80010cfc:	03a0f025 	move	s8,sp
80010d00:	afc40028 	sw	a0,40(s8)
80010d04:	afc5002c 	sw	a1,44(s8)
80010d08:	afc60030 	sw	a2,48(s8)
80010d0c:	afc70034 	sw	a3,52(s8)
80010d10:	afc00014 	sw	zero,20(s8)
80010d14:	8fc20030 	lw	v0,48(s8)
80010d18:	00000000 	nop
80010d1c:	afc20018 	sw	v0,24(s8)
80010d20:	10000005 	b	80010d38 <print_str+0x48>
80010d24:	00000000 	nop
80010d28:	8fc20014 	lw	v0,20(s8)
80010d2c:	00000000 	nop
80010d30:	24420001 	addiu	v0,v0,1
80010d34:	afc20014 	sw	v0,20(s8)
80010d38:	8fc20018 	lw	v0,24(s8)
80010d3c:	00000000 	nop
80010d40:	24430001 	addiu	v1,v0,1
80010d44:	afc30018 	sw	v1,24(s8)
80010d48:	80420000 	lb	v0,0(v0)
80010d4c:	00000000 	nop
80010d50:	1440fff5 	bnez	v0,80010d28 <print_str+0x38>
80010d54:	00000000 	nop
80010d58:	8fc30034 	lw	v1,52(s8)
80010d5c:	8fc20014 	lw	v0,20(s8)
80010d60:	00000000 	nop
80010d64:	0062102a 	slt	v0,v1,v0
80010d68:	10400004 	beqz	v0,80010d7c <print_str+0x8c>
80010d6c:	00000000 	nop
80010d70:	8fc20014 	lw	v0,20(s8)
80010d74:	00000000 	nop
80010d78:	afc20034 	sw	v0,52(s8)
80010d7c:	8fc20038 	lw	v0,56(s8)
80010d80:	00000000 	nop
80010d84:	10400020 	beqz	v0,80010e08 <print_str+0x118>
80010d88:	00000000 	nop
80010d8c:	8fc30014 	lw	v1,20(s8)
80010d90:	8fc20028 	lw	v0,40(s8)
80010d94:	00603025 	move	a2,v1
80010d98:	8fc50030 	lw	a1,48(s8)
80010d9c:	8fc4002c 	lw	a0,44(s8)
80010da0:	0040f809 	jalr	v0
80010da4:	00000000 	nop
80010da8:	8fc20014 	lw	v0,20(s8)
80010dac:	00000000 	nop
80010db0:	afc20010 	sw	v0,16(s8)
80010db4:	1000000c 	b	80010de8 <print_str+0xf8>
80010db8:	00000000 	nop
80010dbc:	8fc20028 	lw	v0,40(s8)
80010dc0:	24060001 	li	a2,1
80010dc4:	3c038001 	lui	v1,0x8001
80010dc8:	24651e24 	addiu	a1,v1,7716
80010dcc:	8fc4002c 	lw	a0,44(s8)
80010dd0:	0040f809 	jalr	v0
80010dd4:	00000000 	nop
80010dd8:	8fc20010 	lw	v0,16(s8)
80010ddc:	00000000 	nop
80010de0:	24420001 	addiu	v0,v0,1
80010de4:	afc20010 	sw	v0,16(s8)
80010de8:	8fc30010 	lw	v1,16(s8)
80010dec:	8fc20034 	lw	v0,52(s8)
80010df0:	00000000 	nop
80010df4:	0062102a 	slt	v0,v1,v0
80010df8:	1440fff0 	bnez	v0,80010dbc <print_str+0xcc>
80010dfc:	00000000 	nop
80010e00:	1000001f 	b	80010e80 <print_str+0x190>
80010e04:	00000000 	nop
80010e08:	afc00010 	sw	zero,16(s8)
80010e0c:	1000000c 	b	80010e40 <print_str+0x150>
80010e10:	00000000 	nop
80010e14:	8fc20028 	lw	v0,40(s8)
80010e18:	24060001 	li	a2,1
80010e1c:	3c038001 	lui	v1,0x8001
80010e20:	24651e24 	addiu	a1,v1,7716
80010e24:	8fc4002c 	lw	a0,44(s8)
80010e28:	0040f809 	jalr	v0
80010e2c:	00000000 	nop
80010e30:	8fc20010 	lw	v0,16(s8)
80010e34:	00000000 	nop
80010e38:	24420001 	addiu	v0,v0,1
80010e3c:	afc20010 	sw	v0,16(s8)
80010e40:	8fc30034 	lw	v1,52(s8)
80010e44:	8fc20014 	lw	v0,20(s8)
80010e48:	00000000 	nop
80010e4c:	00621023 	subu	v0,v1,v0
80010e50:	8fc30010 	lw	v1,16(s8)
80010e54:	00000000 	nop
80010e58:	0062102a 	slt	v0,v1,v0
80010e5c:	1440ffed 	bnez	v0,80010e14 <print_str+0x124>
80010e60:	00000000 	nop
80010e64:	8fc30014 	lw	v1,20(s8)
80010e68:	8fc20028 	lw	v0,40(s8)
80010e6c:	00603025 	move	a2,v1
80010e70:	8fc50030 	lw	a1,48(s8)
80010e74:	8fc4002c 	lw	a0,44(s8)
80010e78:	0040f809 	jalr	v0
80010e7c:	00000000 	nop
80010e80:	00000000 	nop
80010e84:	03c0e825 	move	sp,s8
80010e88:	8fbf0024 	lw	ra,36(sp)
80010e8c:	8fbe0020 	lw	s8,32(sp)
80010e90:	27bd0028 	addiu	sp,sp,40
80010e94:	03e00008 	jr	ra
80010e98:	00000000 	nop

80010e9c <print_num>:
80010e9c:	27bdffb8 	addiu	sp,sp,-72
80010ea0:	afbf0044 	sw	ra,68(sp)
80010ea4:	afbe0040 	sw	s8,64(sp)
80010ea8:	afb0003c 	sw	s0,60(sp)
80010eac:	03a0f025 	move	s8,sp
80010eb0:	afc40048 	sw	a0,72(s8)
80010eb4:	afc5004c 	sw	a1,76(s8)
80010eb8:	afc60050 	sw	a2,80(s8)
80010ebc:	afc70054 	sw	a3,84(s8)
80010ec0:	03a02025 	move	a0,sp
80010ec4:	00808025 	move	s0,a0
80010ec8:	afc00020 	sw	zero,32(s8)
80010ecc:	8fc4005c 	lw	a0,92(s8)
80010ed0:	00000000 	nop
80010ed4:	24840046 	addiu	a0,a0,70
80010ed8:	2485ffff 	addiu	a1,a0,-1
80010edc:	afc50024 	sw	a1,36(s8)
80010ee0:	00802825 	move	a1,a0
80010ee4:	00a06025 	move	t4,a1
80010ee8:	00006825 	move	t5,zero
80010eec:	000c2f42 	srl	a1,t4,0x1d
80010ef0:	000d48c0 	sll	t1,t5,0x3
80010ef4:	00a94825 	or	t1,a1,t1
80010ef8:	000c40c0 	sll	t0,t4,0x3
80010efc:	00802825 	move	a1,a0
80010f00:	00a05025 	move	t2,a1
80010f04:	00005825 	move	t3,zero
80010f08:	000a2f42 	srl	a1,t2,0x1d
80010f0c:	000b18c0 	sll	v1,t3,0x3
80010f10:	00a31825 	or	v1,a1,v1
80010f14:	000a10c0 	sll	v0,t2,0x3
80010f18:	00801025 	move	v0,a0
80010f1c:	24420007 	addiu	v0,v0,7
80010f20:	000210c2 	srl	v0,v0,0x3
80010f24:	000210c0 	sll	v0,v0,0x3
80010f28:	03a2e823 	subu	sp,sp,v0
80010f2c:	27a20010 	addiu	v0,sp,16
80010f30:	24420000 	addiu	v0,v0,0
80010f34:	afc20028 	sw	v0,40(s8)
80010f38:	8fc20028 	lw	v0,40(s8)
80010f3c:	00000000 	nop
80010f40:	afc20010 	sw	v0,16(s8)
80010f44:	8fc20054 	lw	v0,84(s8)
80010f48:	8fc30050 	lw	v1,80(s8)
80010f4c:	00000000 	nop
80010f50:	0062001b 	divu	zero,v1,v0
80010f54:	14400002 	bnez	v0,80010f60 <print_num+0xc4>
80010f58:	00000000 	nop
80010f5c:	0007000d 	break	0x7
80010f60:	00001010 	mfhi	v0
80010f64:	afc2002c 	sw	v0,44(s8)
80010f68:	8fc2002c 	lw	v0,44(s8)
80010f6c:	00000000 	nop
80010f70:	2842000a 	slti	v0,v0,10
80010f74:	1040000f 	beqz	v0,80010fb4 <print_num+0x118>
80010f78:	00000000 	nop
80010f7c:	8fc2002c 	lw	v0,44(s8)
80010f80:	00000000 	nop
80010f84:	304200ff 	andi	v0,v0,0xff
80010f88:	24420030 	addiu	v0,v0,48
80010f8c:	304400ff 	andi	a0,v0,0xff
80010f90:	8fc20010 	lw	v0,16(s8)
80010f94:	00000000 	nop
80010f98:	24430001 	addiu	v1,v0,1
80010f9c:	afc30010 	sw	v1,16(s8)
80010fa0:	00041e00 	sll	v1,a0,0x18
80010fa4:	00031e03 	sra	v1,v1,0x18
80010fa8:	a0430000 	sb	v1,0(v0)
80010fac:	1000001f 	b	8001102c <print_num+0x190>
80010fb0:	00000000 	nop
80010fb4:	8fc20068 	lw	v0,104(s8)
80010fb8:	00000000 	nop
80010fbc:	1040000f 	beqz	v0,80010ffc <print_num+0x160>
80010fc0:	00000000 	nop
80010fc4:	8fc2002c 	lw	v0,44(s8)
80010fc8:	00000000 	nop
80010fcc:	304200ff 	andi	v0,v0,0xff
80010fd0:	24420037 	addiu	v0,v0,55
80010fd4:	304400ff 	andi	a0,v0,0xff
80010fd8:	8fc20010 	lw	v0,16(s8)
80010fdc:	00000000 	nop
80010fe0:	24430001 	addiu	v1,v0,1
80010fe4:	afc30010 	sw	v1,16(s8)
80010fe8:	00041e00 	sll	v1,a0,0x18
80010fec:	00031e03 	sra	v1,v1,0x18
80010ff0:	a0430000 	sb	v1,0(v0)
80010ff4:	1000000d 	b	8001102c <print_num+0x190>
80010ff8:	00000000 	nop
80010ffc:	8fc2002c 	lw	v0,44(s8)
80011000:	00000000 	nop
80011004:	304200ff 	andi	v0,v0,0xff
80011008:	24420057 	addiu	v0,v0,87
8001100c:	304400ff 	andi	a0,v0,0xff
80011010:	8fc20010 	lw	v0,16(s8)
80011014:	00000000 	nop
80011018:	24430001 	addiu	v1,v0,1
8001101c:	afc30010 	sw	v1,16(s8)
80011020:	00041e00 	sll	v1,a0,0x18
80011024:	00031e03 	sra	v1,v1,0x18
80011028:	a0430000 	sb	v1,0(v0)
8001102c:	8fc20054 	lw	v0,84(s8)
80011030:	8fc30050 	lw	v1,80(s8)
80011034:	00000000 	nop
80011038:	0062001b 	divu	zero,v1,v0
8001103c:	14400002 	bnez	v0,80011048 <print_num+0x1ac>
80011040:	00000000 	nop
80011044:	0007000d 	break	0x7
80011048:	00001010 	mfhi	v0
8001104c:	00001012 	mflo	v0
80011050:	afc20050 	sw	v0,80(s8)
80011054:	8fc20050 	lw	v0,80(s8)
80011058:	00000000 	nop
8001105c:	1440ffb9 	bnez	v0,80010f44 <print_num+0xa8>
80011060:	00000000 	nop
80011064:	8fc20058 	lw	v0,88(s8)
80011068:	00000000 	nop
8001106c:	10400007 	beqz	v0,8001108c <print_num+0x1f0>
80011070:	00000000 	nop
80011074:	8fc20010 	lw	v0,16(s8)
80011078:	00000000 	nop
8001107c:	24430001 	addiu	v1,v0,1
80011080:	afc30010 	sw	v1,16(s8)
80011084:	2403002d 	li	v1,45
80011088:	a0430000 	sb	v1,0(v0)
8001108c:	8fc30010 	lw	v1,16(s8)
80011090:	8fc20028 	lw	v0,40(s8)
80011094:	00000000 	nop
80011098:	00621023 	subu	v0,v1,v0
8001109c:	afc20020 	sw	v0,32(s8)
800110a0:	8fc3005c 	lw	v1,92(s8)
800110a4:	8fc20020 	lw	v0,32(s8)
800110a8:	00000000 	nop
800110ac:	0062102a 	slt	v0,v1,v0
800110b0:	10400004 	beqz	v0,800110c4 <print_num+0x228>
800110b4:	00000000 	nop
800110b8:	8fc20020 	lw	v0,32(s8)
800110bc:	00000000 	nop
800110c0:	afc2005c 	sw	v0,92(s8)
800110c4:	8fc20060 	lw	v0,96(s8)
800110c8:	00000000 	nop
800110cc:	10400003 	beqz	v0,800110dc <print_num+0x240>
800110d0:	00000000 	nop
800110d4:	24020020 	li	v0,32
800110d8:	a3c20064 	sb	v0,100(s8)
800110dc:	8fc20058 	lw	v0,88(s8)
800110e0:	00000000 	nop
800110e4:	1040002c 	beqz	v0,80011198 <print_num+0x2fc>
800110e8:	00000000 	nop
800110ec:	8fc20060 	lw	v0,96(s8)
800110f0:	00000000 	nop
800110f4:	14400028 	bnez	v0,80011198 <print_num+0x2fc>
800110f8:	00000000 	nop
800110fc:	83c30064 	lb	v1,100(s8)
80011100:	24020030 	li	v0,48
80011104:	14620024 	bne	v1,v0,80011198 <print_num+0x2fc>
80011108:	00000000 	nop
8001110c:	8fc20020 	lw	v0,32(s8)
80011110:	00000000 	nop
80011114:	2442ffff 	addiu	v0,v0,-1
80011118:	afc20014 	sw	v0,20(s8)
8001111c:	1000000c 	b	80011150 <print_num+0x2b4>
80011120:	00000000 	nop
80011124:	8fc30028 	lw	v1,40(s8)
80011128:	8fc20014 	lw	v0,20(s8)
8001112c:	00000000 	nop
80011130:	00621021 	addu	v0,v1,v0
80011134:	93c30064 	lbu	v1,100(s8)
80011138:	00000000 	nop
8001113c:	a0430000 	sb	v1,0(v0)
80011140:	8fc20014 	lw	v0,20(s8)
80011144:	00000000 	nop
80011148:	24420001 	addiu	v0,v0,1
8001114c:	afc20014 	sw	v0,20(s8)
80011150:	8fc2005c 	lw	v0,92(s8)
80011154:	00000000 	nop
80011158:	2442ffff 	addiu	v0,v0,-1
8001115c:	8fc30014 	lw	v1,20(s8)
80011160:	00000000 	nop
80011164:	0062102a 	slt	v0,v1,v0
80011168:	1440ffee 	bnez	v0,80011124 <print_num+0x288>
8001116c:	00000000 	nop
80011170:	8fc2005c 	lw	v0,92(s8)
80011174:	00000000 	nop
80011178:	2442ffff 	addiu	v0,v0,-1
8001117c:	8fc30028 	lw	v1,40(s8)
80011180:	00000000 	nop
80011184:	00621021 	addu	v0,v1,v0
80011188:	2403002d 	li	v1,45
8001118c:	a0430000 	sb	v1,0(v0)
80011190:	10000017 	b	800111f0 <print_num+0x354>
80011194:	00000000 	nop
80011198:	8fc20020 	lw	v0,32(s8)
8001119c:	00000000 	nop
800111a0:	afc20014 	sw	v0,20(s8)
800111a4:	1000000c 	b	800111d8 <print_num+0x33c>
800111a8:	00000000 	nop
800111ac:	8fc30028 	lw	v1,40(s8)
800111b0:	8fc20014 	lw	v0,20(s8)
800111b4:	00000000 	nop
800111b8:	00621021 	addu	v0,v1,v0
800111bc:	93c30064 	lbu	v1,100(s8)
800111c0:	00000000 	nop
800111c4:	a0430000 	sb	v1,0(v0)
800111c8:	8fc20014 	lw	v0,20(s8)
800111cc:	00000000 	nop
800111d0:	24420001 	addiu	v0,v0,1
800111d4:	afc20014 	sw	v0,20(s8)
800111d8:	8fc30014 	lw	v1,20(s8)
800111dc:	8fc2005c 	lw	v0,92(s8)
800111e0:	00000000 	nop
800111e4:	0062102a 	slt	v0,v1,v0
800111e8:	1440fff0 	bnez	v0,800111ac <print_num+0x310>
800111ec:	00000000 	nop
800111f0:	afc00018 	sw	zero,24(s8)
800111f4:	8fc20060 	lw	v0,96(s8)
800111f8:	00000000 	nop
800111fc:	10400007 	beqz	v0,8001121c <print_num+0x380>
80011200:	00000000 	nop
80011204:	8fc20020 	lw	v0,32(s8)
80011208:	00000000 	nop
8001120c:	2442ffff 	addiu	v0,v0,-1
80011210:	afc2001c 	sw	v0,28(s8)
80011214:	10000027 	b	800112b4 <print_num+0x418>
80011218:	00000000 	nop
8001121c:	8fc2005c 	lw	v0,92(s8)
80011220:	00000000 	nop
80011224:	2442ffff 	addiu	v0,v0,-1
80011228:	afc2001c 	sw	v0,28(s8)
8001122c:	10000021 	b	800112b4 <print_num+0x418>
80011230:	00000000 	nop
80011234:	8fc30028 	lw	v1,40(s8)
80011238:	8fc20018 	lw	v0,24(s8)
8001123c:	00000000 	nop
80011240:	00621021 	addu	v0,v1,v0
80011244:	90420000 	lbu	v0,0(v0)
80011248:	00000000 	nop
8001124c:	a3c20030 	sb	v0,48(s8)
80011250:	8fc30028 	lw	v1,40(s8)
80011254:	8fc2001c 	lw	v0,28(s8)
80011258:	00000000 	nop
8001125c:	00621021 	addu	v0,v1,v0
80011260:	80430000 	lb	v1,0(v0)
80011264:	8fc40028 	lw	a0,40(s8)
80011268:	8fc20018 	lw	v0,24(s8)
8001126c:	00000000 	nop
80011270:	00821021 	addu	v0,a0,v0
80011274:	a0430000 	sb	v1,0(v0)
80011278:	8fc30028 	lw	v1,40(s8)
8001127c:	8fc2001c 	lw	v0,28(s8)
80011280:	00000000 	nop
80011284:	00621021 	addu	v0,v1,v0
80011288:	93c30030 	lbu	v1,48(s8)
8001128c:	00000000 	nop
80011290:	a0430000 	sb	v1,0(v0)
80011294:	8fc20018 	lw	v0,24(s8)
80011298:	00000000 	nop
8001129c:	24420001 	addiu	v0,v0,1
800112a0:	afc20018 	sw	v0,24(s8)
800112a4:	8fc2001c 	lw	v0,28(s8)
800112a8:	00000000 	nop
800112ac:	2442ffff 	addiu	v0,v0,-1
800112b0:	afc2001c 	sw	v0,28(s8)
800112b4:	8fc3001c 	lw	v1,28(s8)
800112b8:	8fc20018 	lw	v0,24(s8)
800112bc:	00000000 	nop
800112c0:	0043102a 	slt	v0,v0,v1
800112c4:	1440ffdb 	bnez	v0,80011234 <print_num+0x398>
800112c8:	00000000 	nop
800112cc:	8fc3005c 	lw	v1,92(s8)
800112d0:	8fc20048 	lw	v0,72(s8)
800112d4:	00603025 	move	a2,v1
800112d8:	8fc50028 	lw	a1,40(s8)
800112dc:	8fc4004c 	lw	a0,76(s8)
800112e0:	0040f809 	jalr	v0
800112e4:	00000000 	nop
800112e8:	0200e825 	move	sp,s0
800112ec:	00000000 	nop
800112f0:	03c0e825 	move	sp,s8
800112f4:	8fbf0044 	lw	ra,68(sp)
800112f8:	8fbe0040 	lw	s8,64(sp)
800112fc:	8fb0003c 	lw	s0,60(sp)
80011300:	27bd0048 	addiu	sp,sp,72
80011304:	03e00008 	jr	ra
80011308:	00000000 	nop
8001130c:	00000000 	nop

80011310 <memcpy>:
80011310:	27bdfff0 	addiu	sp,sp,-16
80011314:	afbe000c 	sw	s8,12(sp)
80011318:	03a0f025 	move	s8,sp
8001131c:	afc40010 	sw	a0,16(s8)
80011320:	afc50014 	sw	a1,20(s8)
80011324:	afc60018 	sw	a2,24(s8)
80011328:	8fc20010 	lw	v0,16(s8)
8001132c:	00000000 	nop
80011330:	afc20000 	sw	v0,0(s8)
80011334:	8fc30010 	lw	v1,16(s8)
80011338:	8fc20018 	lw	v0,24(s8)
8001133c:	00000000 	nop
80011340:	00621021 	addu	v0,v1,v0
80011344:	afc20004 	sw	v0,4(s8)
80011348:	8fc30014 	lw	v1,20(s8)
8001134c:	8fc20010 	lw	v0,16(s8)
80011350:	00000000 	nop
80011354:	00621026 	xor	v0,v1,v0
80011358:	30420003 	andi	v0,v0,0x3
8001135c:	10400022 	beqz	v0,800113e8 <memcpy+0xd8>
80011360:	00000000 	nop
80011364:	1000000c 	b	80011398 <memcpy+0x88>
80011368:	00000000 	nop
8001136c:	8fc30014 	lw	v1,20(s8)
80011370:	00000000 	nop
80011374:	24620001 	addiu	v0,v1,1
80011378:	afc20014 	sw	v0,20(s8)
8001137c:	8fc20010 	lw	v0,16(s8)
80011380:	00000000 	nop
80011384:	24440001 	addiu	a0,v0,1
80011388:	afc40010 	sw	a0,16(s8)
8001138c:	80630000 	lb	v1,0(v1)
80011390:	00000000 	nop
80011394:	a0430000 	sb	v1,0(v0)
80011398:	8fc30010 	lw	v1,16(s8)
8001139c:	8fc20004 	lw	v0,4(s8)
800113a0:	00000000 	nop
800113a4:	0062102b 	sltu	v0,v1,v0
800113a8:	1440fff0 	bnez	v0,8001136c <memcpy+0x5c>
800113ac:	00000000 	nop
800113b0:	8fc20000 	lw	v0,0(s8)
800113b4:	10000043 	b	800114c4 <memcpy+0x1b4>
800113b8:	00000000 	nop
800113bc:	8fc30014 	lw	v1,20(s8)
800113c0:	00000000 	nop
800113c4:	24620001 	addiu	v0,v1,1
800113c8:	afc20014 	sw	v0,20(s8)
800113cc:	8fc20010 	lw	v0,16(s8)
800113d0:	00000000 	nop
800113d4:	24440001 	addiu	a0,v0,1
800113d8:	afc40010 	sw	a0,16(s8)
800113dc:	80630000 	lb	v1,0(v1)
800113e0:	00000000 	nop
800113e4:	a0430000 	sb	v1,0(v0)
800113e8:	8fc20010 	lw	v0,16(s8)
800113ec:	00000000 	nop
800113f0:	30420003 	andi	v0,v0,0x3
800113f4:	10400017 	beqz	v0,80011454 <memcpy+0x144>
800113f8:	00000000 	nop
800113fc:	8fc30010 	lw	v1,16(s8)
80011400:	8fc20004 	lw	v0,4(s8)
80011404:	00000000 	nop
80011408:	0062102b 	sltu	v0,v1,v0
8001140c:	1440ffeb 	bnez	v0,800113bc <memcpy+0xac>
80011410:	00000000 	nop
80011414:	1000000f 	b	80011454 <memcpy+0x144>
80011418:	00000000 	nop
8001141c:	8fc20014 	lw	v0,20(s8)
80011420:	00000000 	nop
80011424:	8c430000 	lw	v1,0(v0)
80011428:	8fc20010 	lw	v0,16(s8)
8001142c:	00000000 	nop
80011430:	ac430000 	sw	v1,0(v0)
80011434:	8fc20010 	lw	v0,16(s8)
80011438:	00000000 	nop
8001143c:	24420004 	addiu	v0,v0,4
80011440:	afc20010 	sw	v0,16(s8)
80011444:	8fc20014 	lw	v0,20(s8)
80011448:	00000000 	nop
8001144c:	24420004 	addiu	v0,v0,4
80011450:	afc20014 	sw	v0,20(s8)
80011454:	8fc20010 	lw	v0,16(s8)
80011458:	00000000 	nop
8001145c:	24420004 	addiu	v0,v0,4
80011460:	8fc30004 	lw	v1,4(s8)
80011464:	00000000 	nop
80011468:	0062102b 	sltu	v0,v1,v0
8001146c:	1040ffeb 	beqz	v0,8001141c <memcpy+0x10c>
80011470:	00000000 	nop
80011474:	1000000c 	b	800114a8 <memcpy+0x198>
80011478:	00000000 	nop
8001147c:	8fc30014 	lw	v1,20(s8)
80011480:	00000000 	nop
80011484:	24620001 	addiu	v0,v1,1
80011488:	afc20014 	sw	v0,20(s8)
8001148c:	8fc20010 	lw	v0,16(s8)
80011490:	00000000 	nop
80011494:	24440001 	addiu	a0,v0,1
80011498:	afc40010 	sw	a0,16(s8)
8001149c:	80630000 	lb	v1,0(v1)
800114a0:	00000000 	nop
800114a4:	a0430000 	sb	v1,0(v0)
800114a8:	8fc30010 	lw	v1,16(s8)
800114ac:	8fc20004 	lw	v0,4(s8)
800114b0:	00000000 	nop
800114b4:	0062102b 	sltu	v0,v1,v0
800114b8:	1440fff0 	bnez	v0,8001147c <memcpy+0x16c>
800114bc:	00000000 	nop
800114c0:	8fc20000 	lw	v0,0(s8)
800114c4:	03c0e825 	move	sp,s8
800114c8:	8fbe000c 	lw	s8,12(sp)
800114cc:	27bd0010 	addiu	sp,sp,16
800114d0:	03e00008 	jr	ra
800114d4:	00000000 	nop

800114d8 <memset>:
800114d8:	27bdffe8 	addiu	sp,sp,-24
800114dc:	afbe0014 	sw	s8,20(sp)
800114e0:	03a0f025 	move	s8,sp
800114e4:	afc40018 	sw	a0,24(s8)
800114e8:	afc5001c 	sw	a1,28(s8)
800114ec:	afc60020 	sw	a2,32(s8)
800114f0:	8fc20018 	lw	v0,24(s8)
800114f4:	00000000 	nop
800114f8:	afc20000 	sw	v0,0(s8)
800114fc:	8fc30018 	lw	v1,24(s8)
80011500:	8fc20020 	lw	v0,32(s8)
80011504:	00000000 	nop
80011508:	00621021 	addu	v0,v1,v0
8001150c:	afc20004 	sw	v0,4(s8)
80011510:	8fc2001c 	lw	v0,28(s8)
80011514:	00000000 	nop
80011518:	a3c20008 	sb	v0,8(s8)
8001151c:	93c30008 	lbu	v1,8(s8)
80011520:	93c20008 	lbu	v0,8(s8)
80011524:	00000000 	nop
80011528:	00021200 	sll	v0,v0,0x8
8001152c:	00621825 	or	v1,v1,v0
80011530:	93c20008 	lbu	v0,8(s8)
80011534:	00000000 	nop
80011538:	00021400 	sll	v0,v0,0x10
8001153c:	00621825 	or	v1,v1,v0
80011540:	93c20008 	lbu	v0,8(s8)
80011544:	00000000 	nop
80011548:	00021600 	sll	v0,v0,0x18
8001154c:	00621025 	or	v0,v1,v0
80011550:	afc2000c 	sw	v0,12(s8)
80011554:	10000008 	b	80011578 <memset+0xa0>
80011558:	00000000 	nop
8001155c:	8fc20018 	lw	v0,24(s8)
80011560:	00000000 	nop
80011564:	24430001 	addiu	v1,v0,1
80011568:	afc30018 	sw	v1,24(s8)
8001156c:	93c30008 	lbu	v1,8(s8)
80011570:	00000000 	nop
80011574:	a0430000 	sb	v1,0(v0)
80011578:	8fc20018 	lw	v0,24(s8)
8001157c:	00000000 	nop
80011580:	30420003 	andi	v0,v0,0x3
80011584:	10400011 	beqz	v0,800115cc <memset+0xf4>
80011588:	00000000 	nop
8001158c:	8fc30018 	lw	v1,24(s8)
80011590:	8fc20004 	lw	v0,4(s8)
80011594:	00000000 	nop
80011598:	0062102b 	sltu	v0,v1,v0
8001159c:	1440ffef 	bnez	v0,8001155c <memset+0x84>
800115a0:	00000000 	nop
800115a4:	10000009 	b	800115cc <memset+0xf4>
800115a8:	00000000 	nop
800115ac:	8fc20018 	lw	v0,24(s8)
800115b0:	8fc3000c 	lw	v1,12(s8)
800115b4:	00000000 	nop
800115b8:	ac430000 	sw	v1,0(v0)
800115bc:	8fc20018 	lw	v0,24(s8)
800115c0:	00000000 	nop
800115c4:	24420004 	addiu	v0,v0,4
800115c8:	afc20018 	sw	v0,24(s8)
800115cc:	8fc20018 	lw	v0,24(s8)
800115d0:	00000000 	nop
800115d4:	24420004 	addiu	v0,v0,4
800115d8:	8fc30004 	lw	v1,4(s8)
800115dc:	00000000 	nop
800115e0:	0062102b 	sltu	v0,v1,v0
800115e4:	1040fff1 	beqz	v0,800115ac <memset+0xd4>
800115e8:	00000000 	nop
800115ec:	10000008 	b	80011610 <memset+0x138>
800115f0:	00000000 	nop
800115f4:	8fc20018 	lw	v0,24(s8)
800115f8:	00000000 	nop
800115fc:	24430001 	addiu	v1,v0,1
80011600:	afc30018 	sw	v1,24(s8)
80011604:	93c30008 	lbu	v1,8(s8)
80011608:	00000000 	nop
8001160c:	a0430000 	sb	v1,0(v0)
80011610:	8fc30018 	lw	v1,24(s8)
80011614:	8fc20004 	lw	v0,4(s8)
80011618:	00000000 	nop
8001161c:	0062102b 	sltu	v0,v1,v0
80011620:	1440fff4 	bnez	v0,800115f4 <memset+0x11c>
80011624:	00000000 	nop
80011628:	8fc20000 	lw	v0,0(s8)
8001162c:	03c0e825 	move	sp,s8
80011630:	8fbe0014 	lw	s8,20(sp)
80011634:	27bd0018 	addiu	sp,sp,24
80011638:	03e00008 	jr	ra
8001163c:	00000000 	nop

80011640 <strlen>:
80011640:	27bdfff0 	addiu	sp,sp,-16
80011644:	afbe000c 	sw	s8,12(sp)
80011648:	03a0f025 	move	s8,sp
8001164c:	afc40010 	sw	a0,16(s8)
80011650:	afc00000 	sw	zero,0(s8)
80011654:	10000009 	b	8001167c <strlen+0x3c>
80011658:	00000000 	nop
8001165c:	8fc20000 	lw	v0,0(s8)
80011660:	00000000 	nop
80011664:	24420001 	addiu	v0,v0,1
80011668:	afc20000 	sw	v0,0(s8)
8001166c:	8fc20010 	lw	v0,16(s8)
80011670:	00000000 	nop
80011674:	24420001 	addiu	v0,v0,1
80011678:	afc20010 	sw	v0,16(s8)
8001167c:	8fc20010 	lw	v0,16(s8)
80011680:	00000000 	nop
80011684:	80420000 	lb	v0,0(v0)
80011688:	00000000 	nop
8001168c:	1440fff3 	bnez	v0,8001165c <strlen+0x1c>
80011690:	00000000 	nop
80011694:	8fc20000 	lw	v0,0(s8)
80011698:	03c0e825 	move	sp,s8
8001169c:	8fbe000c 	lw	s8,12(sp)
800116a0:	27bd0010 	addiu	sp,sp,16
800116a4:	03e00008 	jr	ra
800116a8:	00000000 	nop

800116ac <strcpy>:
800116ac:	27bdfff0 	addiu	sp,sp,-16
800116b0:	afbe000c 	sw	s8,12(sp)
800116b4:	03a0f025 	move	s8,sp
800116b8:	afc40010 	sw	a0,16(s8)
800116bc:	afc50014 	sw	a1,20(s8)
800116c0:	8fc20010 	lw	v0,16(s8)
800116c4:	00000000 	nop
800116c8:	afc20000 	sw	v0,0(s8)
800116cc:	00000000 	nop
800116d0:	8fc30014 	lw	v1,20(s8)
800116d4:	00000000 	nop
800116d8:	24620001 	addiu	v0,v1,1
800116dc:	afc20014 	sw	v0,20(s8)
800116e0:	8fc20010 	lw	v0,16(s8)
800116e4:	00000000 	nop
800116e8:	24440001 	addiu	a0,v0,1
800116ec:	afc40010 	sw	a0,16(s8)
800116f0:	80630000 	lb	v1,0(v1)
800116f4:	00000000 	nop
800116f8:	a0430000 	sb	v1,0(v0)
800116fc:	80420000 	lb	v0,0(v0)
80011700:	00000000 	nop
80011704:	1440fff2 	bnez	v0,800116d0 <strcpy+0x24>
80011708:	00000000 	nop
8001170c:	8fc20000 	lw	v0,0(s8)
80011710:	03c0e825 	move	sp,s8
80011714:	8fbe000c 	lw	s8,12(sp)
80011718:	27bd0010 	addiu	sp,sp,16
8001171c:	03e00008 	jr	ra
80011720:	00000000 	nop

80011724 <strchr>:
80011724:	27bdfff8 	addiu	sp,sp,-8
80011728:	afbe0004 	sw	s8,4(sp)
8001172c:	03a0f025 	move	s8,sp
80011730:	afc40008 	sw	a0,8(s8)
80011734:	afc5000c 	sw	a1,12(s8)
80011738:	10000011 	b	80011780 <strchr+0x5c>
8001173c:	00000000 	nop
80011740:	8fc20008 	lw	v0,8(s8)
80011744:	00000000 	nop
80011748:	80420000 	lb	v0,0(v0)
8001174c:	00000000 	nop
80011750:	00401825 	move	v1,v0
80011754:	8fc2000c 	lw	v0,12(s8)
80011758:	00000000 	nop
8001175c:	14430004 	bne	v0,v1,80011770 <strchr+0x4c>
80011760:	00000000 	nop
80011764:	8fc20008 	lw	v0,8(s8)
80011768:	1000000c 	b	8001179c <strchr+0x78>
8001176c:	00000000 	nop
80011770:	8fc20008 	lw	v0,8(s8)
80011774:	00000000 	nop
80011778:	24420001 	addiu	v0,v0,1
8001177c:	afc20008 	sw	v0,8(s8)
80011780:	8fc20008 	lw	v0,8(s8)
80011784:	00000000 	nop
80011788:	80420000 	lb	v0,0(v0)
8001178c:	00000000 	nop
80011790:	1440ffeb 	bnez	v0,80011740 <strchr+0x1c>
80011794:	00000000 	nop
80011798:	00001025 	move	v0,zero
8001179c:	03c0e825 	move	sp,s8
800117a0:	8fbe0004 	lw	s8,4(sp)
800117a4:	27bd0008 	addiu	sp,sp,8
800117a8:	03e00008 	jr	ra
800117ac:	00000000 	nop

800117b0 <strcmp>:
800117b0:	27bdfff8 	addiu	sp,sp,-8
800117b4:	afbe0004 	sw	s8,4(sp)
800117b8:	03a0f025 	move	s8,sp
800117bc:	afc40008 	sw	a0,8(s8)
800117c0:	afc5000c 	sw	a1,12(s8)
800117c4:	10000009 	b	800117ec <strcmp+0x3c>
800117c8:	00000000 	nop
800117cc:	8fc20008 	lw	v0,8(s8)
800117d0:	00000000 	nop
800117d4:	24420001 	addiu	v0,v0,1
800117d8:	afc20008 	sw	v0,8(s8)
800117dc:	8fc2000c 	lw	v0,12(s8)
800117e0:	00000000 	nop
800117e4:	24420001 	addiu	v0,v0,1
800117e8:	afc2000c 	sw	v0,12(s8)
800117ec:	8fc20008 	lw	v0,8(s8)
800117f0:	00000000 	nop
800117f4:	80420000 	lb	v0,0(v0)
800117f8:	00000000 	nop
800117fc:	1040000a 	beqz	v0,80011828 <strcmp+0x78>
80011800:	00000000 	nop
80011804:	8fc20008 	lw	v0,8(s8)
80011808:	00000000 	nop
8001180c:	80430000 	lb	v1,0(v0)
80011810:	8fc2000c 	lw	v0,12(s8)
80011814:	00000000 	nop
80011818:	80420000 	lb	v0,0(v0)
8001181c:	00000000 	nop
80011820:	1062ffea 	beq	v1,v0,800117cc <strcmp+0x1c>
80011824:	00000000 	nop
80011828:	8fc20008 	lw	v0,8(s8)
8001182c:	00000000 	nop
80011830:	80420000 	lb	v0,0(v0)
80011834:	00000000 	nop
80011838:	304300ff 	andi	v1,v0,0xff
8001183c:	8fc2000c 	lw	v0,12(s8)
80011840:	00000000 	nop
80011844:	80420000 	lb	v0,0(v0)
80011848:	00000000 	nop
8001184c:	304200ff 	andi	v0,v0,0xff
80011850:	0062102b 	sltu	v0,v1,v0
80011854:	10400004 	beqz	v0,80011868 <strcmp+0xb8>
80011858:	00000000 	nop
8001185c:	2402ffff 	li	v0,-1
80011860:	10000012 	b	800118ac <strcmp+0xfc>
80011864:	00000000 	nop
80011868:	8fc20008 	lw	v0,8(s8)
8001186c:	00000000 	nop
80011870:	80420000 	lb	v0,0(v0)
80011874:	00000000 	nop
80011878:	304300ff 	andi	v1,v0,0xff
8001187c:	8fc2000c 	lw	v0,12(s8)
80011880:	00000000 	nop
80011884:	80420000 	lb	v0,0(v0)
80011888:	00000000 	nop
8001188c:	304200ff 	andi	v0,v0,0xff
80011890:	0043102b 	sltu	v0,v0,v1
80011894:	10400004 	beqz	v0,800118a8 <strcmp+0xf8>
80011898:	00000000 	nop
8001189c:	24020001 	li	v0,1
800118a0:	10000002 	b	800118ac <strcmp+0xfc>
800118a4:	00000000 	nop
800118a8:	00001025 	move	v0,zero
800118ac:	03c0e825 	move	sp,s8
800118b0:	8fbe0004 	lw	s8,4(sp)
800118b4:	27bd0008 	addiu	sp,sp,8
800118b8:	03e00008 	jr	ra
800118bc:	00000000 	nop

800118c0 <mips_init>:
800118c0:	27bdffe8 	addiu	sp,sp,-24
800118c4:	afbf0014 	sw	ra,20(sp)
800118c8:	afbe0010 	sw	s8,16(sp)
800118cc:	03a0f025 	move	s8,sp
800118d0:	3c028001 	lui	v0,0x8001
800118d4:	24441e30 	addiu	a0,v0,7728
800118d8:	0c0046d1 	jal	80011b44 <printk>
800118dc:	00000000 	nop
800118e0:	1000ffff 	b	800118e0 <mips_init+0x20>
800118e4:	00000000 	nop
	...

800118f0 <_start>:
800118f0:	40806000 	mtc0	zero,c0_sr
800118f4:	3c1d8040 	lui	sp,0x8040
800118f8:	08004630 	j	800118c0 <mips_init>
800118fc:	00000000 	nop

80011900 <printcharc>:
80011900:	27bdfff8 	addiu	sp,sp,-8
80011904:	afbe0004 	sw	s8,4(sp)
80011908:	03a0f025 	move	s8,sp
8001190c:	00801025 	move	v0,a0
80011910:	a3c20008 	sb	v0,8(s8)
80011914:	3c02b000 	lui	v0,0xb000
80011918:	93c30008 	lbu	v1,8(s8)
8001191c:	00000000 	nop
80011920:	a0430000 	sb	v1,0(v0)
80011924:	00000000 	nop
80011928:	03c0e825 	move	sp,s8
8001192c:	8fbe0004 	lw	s8,4(sp)
80011930:	27bd0008 	addiu	sp,sp,8
80011934:	03e00008 	jr	ra
80011938:	00000000 	nop

8001193c <scancharc>:
8001193c:	27bdfff8 	addiu	sp,sp,-8
80011940:	afbe0004 	sw	s8,4(sp)
80011944:	03a0f025 	move	s8,sp
80011948:	3c02b000 	lui	v0,0xb000
8001194c:	90420000 	lbu	v0,0(v0)
80011950:	00000000 	nop
80011954:	00021600 	sll	v0,v0,0x18
80011958:	00021603 	sra	v0,v0,0x18
8001195c:	03c0e825 	move	sp,s8
80011960:	8fbe0004 	lw	s8,4(sp)
80011964:	27bd0008 	addiu	sp,sp,8
80011968:	03e00008 	jr	ra
8001196c:	00000000 	nop

80011970 <halt>:
80011970:	27bdfff8 	addiu	sp,sp,-8
80011974:	afbe0004 	sw	s8,4(sp)
80011978:	03a0f025 	move	s8,sp
8001197c:	3c02b000 	lui	v0,0xb000
80011980:	34420010 	ori	v0,v0,0x10
80011984:	a0400000 	sb	zero,0(v0)
80011988:	00000000 	nop
8001198c:	03c0e825 	move	sp,s8
80011990:	8fbe0004 	lw	s8,4(sp)
80011994:	27bd0008 	addiu	sp,sp,8
80011998:	03e00008 	jr	ra
8001199c:	00000000 	nop

800119a0 <_panic>:
800119a0:	27bdffb8 	addiu	sp,sp,-72
800119a4:	afbf0044 	sw	ra,68(sp)
800119a8:	afbe0040 	sw	s8,64(sp)
800119ac:	03a0f025 	move	s8,sp
800119b0:	afc40048 	sw	a0,72(s8)
800119b4:	afc5004c 	sw	a1,76(s8)
800119b8:	afc60050 	sw	a2,80(s8)
800119bc:	afc70054 	sw	a3,84(s8)
800119c0:	03a01025 	move	v0,sp
800119c4:	afc20020 	sw	v0,32(s8)
800119c8:	03e01025 	move	v0,ra
800119cc:	afc20024 	sw	v0,36(s8)
800119d0:	40024000 	mfc0	v0,c0_badvaddr
800119d4:	00000000 	nop
800119d8:	afc20028 	sw	v0,40(s8)
800119dc:	40026000 	mfc0	v0,c0_sr
800119e0:	00000000 	nop
800119e4:	afc2002c 	sw	v0,44(s8)
800119e8:	40026800 	mfc0	v0,c0_cause
800119ec:	00000000 	nop
800119f0:	afc20030 	sw	v0,48(s8)
800119f4:	40027000 	mfc0	v0,c0_epc
800119f8:	00000000 	nop
800119fc:	afc20034 	sw	v0,52(s8)
80011a00:	8fc70050 	lw	a3,80(s8)
80011a04:	8fc6004c 	lw	a2,76(s8)
80011a08:	8fc50048 	lw	a1,72(s8)
80011a0c:	3c028001 	lui	v0,0x8001
80011a10:	24441e50 	addiu	a0,v0,7760
80011a14:	0c0046d1 	jal	80011b44 <printk>
80011a18:	00000000 	nop
80011a1c:	27c20058 	addiu	v0,s8,88
80011a20:	afc20038 	sw	v0,56(s8)
80011a24:	8fc20038 	lw	v0,56(s8)
80011a28:	00000000 	nop
80011a2c:	00403825 	move	a3,v0
80011a30:	8fc60054 	lw	a2,84(s8)
80011a34:	00002825 	move	a1,zero
80011a38:	3c028001 	lui	v0,0x8001
80011a3c:	24441ab0 	addiu	a0,v0,6832
80011a40:	0c004104 	jal	80010410 <vprintfmt>
80011a44:	00000000 	nop
80011a48:	8fc20028 	lw	v0,40(s8)
80011a4c:	00000000 	nop
80011a50:	afa20018 	sw	v0,24(sp)
80011a54:	8fc20034 	lw	v0,52(s8)
80011a58:	00000000 	nop
80011a5c:	afa20014 	sw	v0,20(sp)
80011a60:	8fc20030 	lw	v0,48(s8)
80011a64:	00000000 	nop
80011a68:	afa20010 	sw	v0,16(sp)
80011a6c:	8fc7002c 	lw	a3,44(s8)
80011a70:	8fc60020 	lw	a2,32(s8)
80011a74:	8fc50024 	lw	a1,36(s8)
80011a78:	3c028001 	lui	v0,0x8001
80011a7c:	24441e68 	addiu	a0,v0,7784
80011a80:	0c0046d1 	jal	80011b44 <printk>
80011a84:	00000000 	nop
80011a88:	0c00465c 	jal	80011970 <halt>
80011a8c:	00000000 	nop
80011a90:	00000000 	nop
80011a94:	03c0e825 	move	sp,s8
80011a98:	8fbf0044 	lw	ra,68(sp)
80011a9c:	8fbe0040 	lw	s8,64(sp)
80011aa0:	27bd0048 	addiu	sp,sp,72
80011aa4:	03e00008 	jr	ra
80011aa8:	00000000 	nop
80011aac:	00000000 	nop

80011ab0 <outputk>:
80011ab0:	27bdffe0 	addiu	sp,sp,-32
80011ab4:	afbf001c 	sw	ra,28(sp)
80011ab8:	afbe0018 	sw	s8,24(sp)
80011abc:	03a0f025 	move	s8,sp
80011ac0:	afc40020 	sw	a0,32(s8)
80011ac4:	afc50024 	sw	a1,36(s8)
80011ac8:	afc60028 	sw	a2,40(s8)
80011acc:	afc00010 	sw	zero,16(s8)
80011ad0:	1000000e 	b	80011b0c <outputk+0x5c>
80011ad4:	00000000 	nop
80011ad8:	8fc20010 	lw	v0,16(s8)
80011adc:	8fc30024 	lw	v1,36(s8)
80011ae0:	00000000 	nop
80011ae4:	00621021 	addu	v0,v1,v0
80011ae8:	80420000 	lb	v0,0(v0)
80011aec:	00000000 	nop
80011af0:	00402025 	move	a0,v0
80011af4:	0c004640 	jal	80011900 <printcharc>
80011af8:	00000000 	nop
80011afc:	8fc20010 	lw	v0,16(s8)
80011b00:	00000000 	nop
80011b04:	24420001 	addiu	v0,v0,1
80011b08:	afc20010 	sw	v0,16(s8)
80011b0c:	8fc20010 	lw	v0,16(s8)
80011b10:	8fc30028 	lw	v1,40(s8)
80011b14:	00000000 	nop
80011b18:	0043102b 	sltu	v0,v0,v1
80011b1c:	1440ffee 	bnez	v0,80011ad8 <outputk+0x28>
80011b20:	00000000 	nop
	...
80011b2c:	03c0e825 	move	sp,s8
80011b30:	8fbf001c 	lw	ra,28(sp)
80011b34:	8fbe0018 	lw	s8,24(sp)
80011b38:	27bd0020 	addiu	sp,sp,32
80011b3c:	03e00008 	jr	ra
80011b40:	00000000 	nop

80011b44 <printk>:
80011b44:	27bdffe0 	addiu	sp,sp,-32
80011b48:	afbf001c 	sw	ra,28(sp)
80011b4c:	afbe0018 	sw	s8,24(sp)
80011b50:	03a0f025 	move	s8,sp
80011b54:	afc40020 	sw	a0,32(s8)
80011b58:	afc50024 	sw	a1,36(s8)
80011b5c:	afc60028 	sw	a2,40(s8)
80011b60:	afc7002c 	sw	a3,44(s8)
80011b64:	27c20024 	addiu	v0,s8,36
80011b68:	afc20010 	sw	v0,16(s8)
80011b6c:	8fc20010 	lw	v0,16(s8)
80011b70:	00000000 	nop
80011b74:	00403825 	move	a3,v0
80011b78:	8fc60020 	lw	a2,32(s8)
80011b7c:	00002825 	move	a1,zero
80011b80:	3c028001 	lui	v0,0x8001
80011b84:	24441ab0 	addiu	a0,v0,6832
80011b88:	0c004104 	jal	80010410 <vprintfmt>
80011b8c:	00000000 	nop
80011b90:	00000000 	nop
80011b94:	03c0e825 	move	sp,s8
80011b98:	8fbf001c 	lw	ra,28(sp)
80011b9c:	8fbe0018 	lw	s8,24(sp)
80011ba0:	27bd0020 	addiu	sp,sp,32
80011ba4:	03e00008 	jr	ra
80011ba8:	00000000 	nop

80011bac <print_tf>:
80011bac:	27bdffe0 	addiu	sp,sp,-32
80011bb0:	afbf001c 	sw	ra,28(sp)
80011bb4:	afbe0018 	sw	s8,24(sp)
80011bb8:	03a0f025 	move	s8,sp
80011bbc:	afc40020 	sw	a0,32(s8)
80011bc0:	afc00010 	sw	zero,16(s8)
80011bc4:	10000012 	b	80011c10 <print_tf+0x64>
80011bc8:	00000000 	nop
80011bcc:	8fc30020 	lw	v1,32(s8)
80011bd0:	8fc20010 	lw	v0,16(s8)
80011bd4:	00000000 	nop
80011bd8:	00021080 	sll	v0,v0,0x2
80011bdc:	00621021 	addu	v0,v1,v0
80011be0:	8c420000 	lw	v0,0(v0)
80011be4:	00000000 	nop
80011be8:	00403025 	move	a2,v0
80011bec:	8fc50010 	lw	a1,16(s8)
80011bf0:	3c028001 	lui	v0,0x8001
80011bf4:	24441ec0 	addiu	a0,v0,7872
80011bf8:	0c0046d1 	jal	80011b44 <printk>
80011bfc:	00000000 	nop
80011c00:	8fc20010 	lw	v0,16(s8)
80011c04:	00000000 	nop
80011c08:	24420001 	addiu	v0,v0,1
80011c0c:	afc20010 	sw	v0,16(s8)
80011c10:	8fc20010 	lw	v0,16(s8)
80011c14:	00000000 	nop
80011c18:	2c420020 	sltiu	v0,v0,32
80011c1c:	1440ffeb 	bnez	v0,80011bcc <print_tf+0x20>
80011c20:	00000000 	nop
80011c24:	8fc20020 	lw	v0,32(s8)
80011c28:	00000000 	nop
80011c2c:	8c420084 	lw	v0,132(v0)
80011c30:	00000000 	nop
80011c34:	00402825 	move	a1,v0
80011c38:	3c028001 	lui	v0,0x8001
80011c3c:	24441ed0 	addiu	a0,v0,7888
80011c40:	0c0046d1 	jal	80011b44 <printk>
80011c44:	00000000 	nop
80011c48:	8fc20020 	lw	v0,32(s8)
80011c4c:	00000000 	nop
80011c50:	8c420088 	lw	v0,136(v0)
80011c54:	00000000 	nop
80011c58:	00402825 	move	a1,v0
80011c5c:	3c028001 	lui	v0,0x8001
80011c60:	24441edc 	addiu	a0,v0,7900
80011c64:	0c0046d1 	jal	80011b44 <printk>
80011c68:	00000000 	nop
80011c6c:	8fc20020 	lw	v0,32(s8)
80011c70:	00000000 	nop
80011c74:	8c420080 	lw	v0,128(v0)
80011c78:	00000000 	nop
80011c7c:	00402825 	move	a1,v0
80011c80:	3c028001 	lui	v0,0x8001
80011c84:	24441eec 	addiu	a0,v0,7916
80011c88:	0c0046d1 	jal	80011b44 <printk>
80011c8c:	00000000 	nop
80011c90:	8fc20020 	lw	v0,32(s8)
80011c94:	00000000 	nop
80011c98:	8c42008c 	lw	v0,140(v0)
80011c9c:	00000000 	nop
80011ca0:	00402825 	move	a1,v0
80011ca4:	3c028001 	lui	v0,0x8001
80011ca8:	24441f00 	addiu	a0,v0,7936
80011cac:	0c0046d1 	jal	80011b44 <printk>
80011cb0:	00000000 	nop
80011cb4:	8fc20020 	lw	v0,32(s8)
80011cb8:	00000000 	nop
80011cbc:	8c420090 	lw	v0,144(v0)
80011cc0:	00000000 	nop
80011cc4:	00402825 	move	a1,v0
80011cc8:	3c028001 	lui	v0,0x8001
80011ccc:	24441f14 	addiu	a0,v0,7956
80011cd0:	0c0046d1 	jal	80011b44 <printk>
80011cd4:	00000000 	nop
80011cd8:	8fc20020 	lw	v0,32(s8)
80011cdc:	00000000 	nop
80011ce0:	8c420094 	lw	v0,148(v0)
80011ce4:	00000000 	nop
80011ce8:	00402825 	move	a1,v0
80011cec:	3c028001 	lui	v0,0x8001
80011cf0:	24441f28 	addiu	a0,v0,7976
80011cf4:	0c0046d1 	jal	80011b44 <printk>
80011cf8:	00000000 	nop
80011cfc:	00000000 	nop
80011d00:	03c0e825 	move	sp,s8
80011d04:	8fbf001c 	lw	ra,28(sp)
80011d08:	8fbe0018 	lw	s8,24(sp)
80011d0c:	27bd0020 	addiu	sp,sp,32
80011d10:	03e00008 	jr	ra
80011d14:	00000000 	nop
	...
